target datalayout = "e-m:e-p270:32:32-p271:32:32-p272:64:64-i64:64-i128:128-f80:128-n8:16:32:64-S128"
target triple = "x86_64-pc-linux-gnu"

@stderr = external global ptr, align 8
@.str.18 = private unnamed_addr constant [42 x i8] c"fitfn = %d, should be in the range 0..%d\0A\00", align 1

; Function Attrs: mustprogress uwtable
define noundef double @_Z12fit_functioniPKdd(i32 noundef %0, ptr noundef %1, double noundef %2) #3 {
  %4 = alloca double, align 8
  %5 = alloca i32, align 4
  %6 = alloca ptr, align 8
  %7 = alloca double, align 8
  store i32 %0, ptr %5, align 4, !tbaa !4
  store ptr %1, ptr %6, align 8, !tbaa !18
  store double %2, ptr %7, align 8, !tbaa !16
  %8 = load i32, ptr %5, align 4, !tbaa !4
  %9 = icmp slt i32 %8, 0
  br i1 %9, label %13, label %10

10:                                               ; preds = %3
  %11 = load i32, ptr %5, align 4, !tbaa !4
  %12 = icmp sge i32 %11, 11
  br i1 %12, label %13, label %17

13:                                               ; preds = %10, %3
  %14 = load ptr, ptr @stderr, align 8, !tbaa !20
  %15 = load i32, ptr %5, align 4, !tbaa !4
  %16 = call i32 (ptr, ptr, ...) @fprintf(ptr noundef %14, ptr noundef @.str.18, i32 noundef %15, i32 noundef 10) #14
  store double 0.000000e+00, ptr %4, align 8
  br label %25

17:                                               ; preds = %10
  %18 = load i32, ptr %5, align 4, !tbaa !4
  %19 = sext i32 %18 to i64
  %20 = getelementptr inbounds [12 x ptr], ptr @lmcurves, i64 0, i64 %19
  %21 = load ptr, ptr %20, align 8, !tbaa !22
  %22 = load double, ptr %7, align 8, !tbaa !16
  %23 = load ptr, ptr %6, align 8, !tbaa !18
  %24 = call noundef double %21(double noundef %22, ptr noundef %23)
  store double %24, ptr %4, align 8
  br label %25

25:                                               ; preds = %17, %13
  %26 = load double, ptr %4, align 8
  ret double %26
}