; Function Attrs: mustprogress uwtable
define noundef double @_Z12fit_functioniPKdd(i32 noundef %0, ptr noundef %1, double noundef %2) local_unnamed_addr #7 {
  %or.cond = icmp ugt i32 %0, 10
  br i1 %or.cond, label %4, label %7

4:                                                ; preds = %3
  %5 = load ptr, ptr @stderr, align 8, !tbaa !15
  %6 = tail call i32 (ptr, ptr, ...) @fprintf(ptr noundef %5, ptr noundef nonnull @.str.18, i32 noundef %0, i32 noundef 10) #19
  br label %12

7:                                                ; preds = %3
  %8 = zext nneg i32 %0 to i64
  %9 = getelementptr inbounds nuw [12 x ptr], ptr @lmcurves, i64 0, i64 %8
  %10 = load ptr, ptr %9, align 8, !tbaa !17
  %11 = tail call noundef double %10(double noundef %2, ptr noundef %1)
  br label %12

12:                                               ; preds = %7, %4
  %.0 = phi double [ 0.000000e+00, %4 ], [ %11, %7 ]
  ret double %.0
}